target datalayout = "e-m:e-p270:32:32-p271:32:32-p272:64:64-i64:64-i128:128-f80:128-n8:16:32:64-S128"
target triple = "x86_64-pc-linux-gnu"

%"struct.Luau::BytecodeBuilder::StringRef" = type { ptr, i64 }

; Function Attrs: mustprogress nounwind uwtable
define dso_local noundef zeroext i1 @_ZNK4Luau15BytecodeBuilder9StringRefeqERKS1_(ptr noundef nonnull align 8 dereferenceable(16) %0, ptr noundef nonnull align 8 dereferenceable(16) %1) #0 align 2 {
  %3 = alloca ptr, align 8
  %4 = alloca ptr, align 8
  store ptr %0, ptr %3, align 8, !tbaa !4
  store ptr %1, ptr %4, align 8, !tbaa !4
  %5 = load ptr, ptr %3, align 8
  %6 = getelementptr inbounds nuw %"struct.Luau::BytecodeBuilder::StringRef", ptr %5, i32 0, i32 0
  %7 = load ptr, ptr %6, align 8, !tbaa !9
  %8 = icmp ne ptr %7, null
  br i1 %8, label %9, label %33

9:                                                ; preds = %2
  %10 = load ptr, ptr %4, align 8, !tbaa !4
  %11 = getelementptr inbounds nuw %"struct.Luau::BytecodeBuilder::StringRef", ptr %10, i32 0, i32 0
  %12 = load ptr, ptr %11, align 8, !tbaa !9
  %13 = icmp ne ptr %12, null
  br i1 %13, label %14, label %33

14:                                               ; preds = %9
  %15 = getelementptr inbounds nuw %"struct.Luau::BytecodeBuilder::StringRef", ptr %5, i32 0, i32 1
  %16 = load i64, ptr %15, align 8, !tbaa !13
  %17 = load ptr, ptr %4, align 8, !tbaa !4
  %18 = getelementptr inbounds nuw %"struct.Luau::BytecodeBuilder::StringRef", ptr %17, i32 0, i32 1
  %19 = load i64, ptr %18, align 8, !tbaa !13
  %20 = icmp eq i64 %16, %19
  br i1 %20, label %21, label %31

21:                                               ; preds = %14
  %22 = getelementptr inbounds nuw %"struct.Luau::BytecodeBuilder::StringRef", ptr %5, i32 0, i32 0
  %23 = load ptr, ptr %22, align 8, !tbaa !9
  %24 = load ptr, ptr %4, align 8, !tbaa !4
  %25 = getelementptr inbounds nuw %"struct.Luau::BytecodeBuilder::StringRef", ptr %24, i32 0, i32 0
  %26 = load ptr, ptr %25, align 8, !tbaa !9
  %27 = getelementptr inbounds nuw %"struct.Luau::BytecodeBuilder::StringRef", ptr %5, i32 0, i32 1
  %28 = load i64, ptr %27, align 8, !tbaa !13
  %29 = call i32 @memcmp(ptr noundef %23, ptr noundef %26, i64 noundef %28) #18
  %30 = icmp eq i32 %29, 0
  br label %31

31:                                               ; preds = %21, %14
  %32 = phi i1 [ false, %14 ], [ %30, %21 ]
  br label %40

33:                                               ; preds = %9, %2
  %34 = getelementptr inbounds nuw %"struct.Luau::BytecodeBuilder::StringRef", ptr %5, i32 0, i32 0
  %35 = load ptr, ptr %34, align 8, !tbaa !9
  %36 = load ptr, ptr %4, align 8, !tbaa !4
  %37 = getelementptr inbounds nuw %"struct.Luau::BytecodeBuilder::StringRef", ptr %36, i32 0, i32 0
  %38 = load ptr, ptr %37, align 8, !tbaa !9
  %39 = icmp eq ptr %35, %38
  br label %40

40:                                               ; preds = %33, %31
  %41 = phi i1 [ %32, %31 ], [ %39, %33 ]
  ret i1 %41
}