; Function Attrs: mustprogress nofree nounwind willreturn memory(read, inaccessiblemem: none) uwtable
define dso_local noundef zeroext i1 @_ZNK4Luau15BytecodeBuilder9StringRefeqERKS1_(ptr noundef nonnull readonly align 8 captures(none) dereferenceable(16) %0, ptr noundef nonnull readonly align 8 captures(none) dereferenceable(16) %1) local_unnamed_addr #0 align 2 {
  %3 = load ptr, ptr %0, align 8, !tbaa !4
  %.not = icmp eq ptr %3, null
  %.pre = load ptr, ptr %1, align 8, !tbaa !4
  %.not7 = icmp eq ptr %.pre, null
  %or.cond = select i1 %.not, i1 true, i1 %.not7
  br i1 %or.cond, label %12, label %4

4:                                                ; preds = %2
  %5 = getelementptr inbounds nuw i8, ptr %0, i64 8
  %6 = load i64, ptr %5, align 8, !tbaa !11
  %7 = getelementptr inbounds nuw i8, ptr %1, i64 8
  %8 = load i64, ptr %7, align 8, !tbaa !11
  %9 = icmp eq i64 %6, %8
  br i1 %9, label %10, label %14

10:                                               ; preds = %4
  %bcmp = tail call i32 @bcmp(ptr nonnull %3, ptr nonnull %.pre, i64 %6)
  %11 = icmp eq i32 %bcmp, 0
  br label %14

12:                                               ; preds = %2
  %13 = icmp eq ptr %3, %.pre
  br label %14

14:                                               ; preds = %4, %10, %12
  %15 = phi i1 [ %13, %12 ], [ false, %4 ], [ %11, %10 ]
  ret i1 %15
}